target datalayout = "e-m:e-p270:32:32-p271:32:32-p272:64:64-i64:64-i128:128-f80:128-n8:16:32:64-S128"
target triple = "x86_64-pc-linux-gnu"

%struct.rb_control_frame_struct = type { ptr, ptr, ptr, i64, ptr, ptr, ptr }
%struct.rb_captured_block = type { i64, ptr, %union.anon.14 }
%union.anon.14 = type { ptr }
%struct.rb_execution_context_struct = type { ptr, i64, ptr, ptr, i32, i32, ptr, ptr, ptr, i64, i64, i64, ptr, i64, ptr, i64, i64, i8, i8, i64, %struct.anon.0 }
%struct.anon.0 = type { ptr, ptr, i64, [1 x %struct.__jmp_buf_tag] }
%struct.__jmp_buf_tag = type { [8 x i64], i32, %struct.__sigset_t }
%struct.__sigset_t = type { [16 x i64] }
%struct.rb_iseq_struct = type { i64, i64, ptr, %union.anon.15 }
%union.anon.15 = type { %struct.anon.16 }
%struct.anon.16 = type { i64, i32 }
%struct.rb_iseq_constant_body = type { i32, i32, ptr, %struct.anon.18, %struct.rb_iseq_location_struct, %struct.iseq_insn_info, ptr, ptr, ptr, ptr, ptr, ptr, %struct.anon.19, i32, i32, i32, i32, i32, i32, i32, i32, i8, %union.anon.20, ptr, ptr, ptr, i64, ptr, i64, ptr, i64 }
%struct.anon.18 = type { %struct.anon, i32, i32, i32, i32, i32, i32, i32, ptr, ptr }
%struct.anon = type { i16, [2 x i8] }
%struct.rb_iseq_location_struct = type { i64, i64, i64, i32, i32, %struct.rb_code_location_struct }
%struct.rb_code_location_struct = type { %struct.rb_code_position_struct, %struct.rb_code_position_struct }
%struct.rb_code_position_struct = type { i32, i32 }
%struct.iseq_insn_info = type { ptr, ptr, i32, ptr }
%struct.anon.19 = type { i64, i64, i64, i64, ptr }
%union.anon.20 = type { ptr }
%struct.rb_calling_info = type { ptr, ptr, i64, i64, i32, i8, i64 }

; Function Attrs: nounwind sspstrong uwtable
define internal void @vm_push_frame(ptr noundef %0, ptr noundef %1, i64 noundef %2, i64 noundef %3, i64 noundef %4, i64 noundef %5, ptr noundef %6, ptr noundef %7, i32 noundef %8, i32 noundef %9) #0 {
  %11 = alloca ptr, align 8
  %12 = alloca ptr, align 8
  %13 = alloca i64, align 8
  %14 = alloca i64, align 8
  %15 = alloca i64, align 8
  %16 = alloca i64, align 8
  %17 = alloca ptr, align 8
  %18 = alloca ptr, align 8
  %19 = alloca i32, align 4
  %20 = alloca i32, align 4
  %21 = alloca ptr, align 8
  %22 = alloca ptr, align 8
  %23 = alloca i32, align 4
  %24 = alloca %struct.rb_control_frame_struct, align 8
  store ptr %0, ptr %11, align 8, !tbaa !33
  store ptr %1, ptr %12, align 8, !tbaa !78
  store i64 %2, ptr %13, align 8, !tbaa !31
  store i64 %3, ptr %14, align 8, !tbaa !31
  store i64 %4, ptr %15, align 8, !tbaa !31
  store i64 %5, ptr %16, align 8, !tbaa !31
  store ptr %6, ptr %17, align 8, !tbaa !7
  store ptr %7, ptr %18, align 8, !tbaa !7
  store i32 %8, ptr %19, align 4, !tbaa !24
  store i32 %9, ptr %20, align 4, !tbaa !24
  call void @llvm.lifetime.start.p0(i64 8, ptr %21) #21
  %25 = load ptr, ptr %11, align 8, !tbaa !33
  %26 = getelementptr inbounds nuw %struct.rb_execution_context_struct, ptr %25, i32 0, i32 2
  %27 = load ptr, ptr %26, align 8, !tbaa !76
  %28 = getelementptr %struct.rb_control_frame_struct, ptr %27, i64 -1
  store ptr %28, ptr %21, align 8, !tbaa !14
  br label %29

29:                                               ; preds = %10
  call void @llvm.lifetime.start.p0(i64 8, ptr %22) #21
  %30 = load ptr, ptr %18, align 8, !tbaa !7
  %31 = load i32, ptr %19, align 4, !tbaa !24
  %32 = load i32, ptr %20, align 4, !tbaa !24
  %33 = add i32 %31, %32
  %34 = sext i32 %33 to i64
  %35 = getelementptr i64, ptr %30, i64 %34
  store ptr %35, ptr %22, align 8, !tbaa !14
  %36 = load ptr, ptr %21, align 8, !tbaa !14
  %37 = load ptr, ptr %22, align 8, !tbaa !14
  %38 = getelementptr %struct.rb_control_frame_struct, ptr %37, i64 1
  %39 = icmp ule ptr %36, %38
  %40 = xor i1 %39, true
  %41 = xor i1 %40, true
  %42 = zext i1 %41 to i32
  %43 = sext i32 %42 to i64
  %44 = call i64 @llvm.expect.i64(i64 %43, i64 0)
  %45 = icmp ne i64 %44, 0
  br i1 %45, label %46, label %47

46:                                               ; preds = %29
  call void @vm_stackoverflow() #38
  unreachable

47:                                               ; preds = %29
  call void @llvm.lifetime.end.p0(i64 8, ptr %22) #21
  br label %48

48:                                               ; preds = %47
  br label %49

49:                                               ; preds = %48
  call void @llvm.lifetime.start.p0(i64 4, ptr %23) #21
  store i32 0, ptr %23, align 4, !tbaa !24
  br label %50

50:                                               ; preds = %58, %49
  %51 = load i32, ptr %23, align 4, !tbaa !24
  %52 = load i32, ptr %19, align 4, !tbaa !24
  %53 = icmp slt i32 %51, %52
  br i1 %53, label %55, label %54

54:                                               ; preds = %50
  call void @llvm.lifetime.end.p0(i64 4, ptr %23) #21
  br label %61

55:                                               ; preds = %50
  %56 = load ptr, ptr %18, align 8, !tbaa !7
  %57 = getelementptr i64, ptr %56, i32 1
  store ptr %57, ptr %18, align 8, !tbaa !7
  store i64 4, ptr %56, align 8, !tbaa !31
  br label %58

58:                                               ; preds = %55
  %59 = load i32, ptr %23, align 4, !tbaa !24
  %60 = add i32 %59, 1
  store i32 %60, ptr %23, align 4, !tbaa !24
  br label %50, !llvm.loop !105

61:                                               ; preds = %54
  %62 = load i64, ptr %16, align 8, !tbaa !31
  %63 = load ptr, ptr %18, align 8, !tbaa !7
  %64 = getelementptr i64, ptr %63, i32 1
  store ptr %64, ptr %18, align 8, !tbaa !7
  store i64 %62, ptr %63, align 8, !tbaa !31
  %65 = load i64, ptr %15, align 8, !tbaa !31
  %66 = load ptr, ptr %18, align 8, !tbaa !7
  %67 = getelementptr i64, ptr %66, i32 1
  store ptr %67, ptr %18, align 8, !tbaa !7
  store i64 %65, ptr %66, align 8, !tbaa !31
  %68 = load i64, ptr %13, align 8, !tbaa !31
  %69 = load ptr, ptr %18, align 8, !tbaa !7
  %70 = getelementptr i64, ptr %69, i32 1
  store ptr %70, ptr %18, align 8, !tbaa !7
  store i64 %68, ptr %69, align 8, !tbaa !31
  %71 = load ptr, ptr %21, align 8, !tbaa !14
  %72 = getelementptr inbounds nuw %struct.rb_control_frame_struct, ptr %24, i32 0, i32 0
  %73 = load ptr, ptr %17, align 8, !tbaa !7
  store ptr %73, ptr %72, align 8, !tbaa !106
  %74 = getelementptr inbounds nuw %struct.rb_control_frame_struct, ptr %24, i32 0, i32 1
  %75 = load ptr, ptr %18, align 8, !tbaa !7
  store ptr %75, ptr %74, align 8, !tbaa !101
  %76 = getelementptr inbounds nuw %struct.rb_control_frame_struct, ptr %24, i32 0, i32 2
  %77 = load ptr, ptr %12, align 8, !tbaa !78
  store ptr %77, ptr %76, align 8, !tbaa !107
  %78 = getelementptr inbounds nuw %struct.rb_control_frame_struct, ptr %24, i32 0, i32 3
  %79 = load i64, ptr %14, align 8, !tbaa !31
  store i64 %79, ptr %78, align 8, !tbaa !100
  %80 = getelementptr inbounds nuw %struct.rb_control_frame_struct, ptr %24, i32 0, i32 4
  %81 = load ptr, ptr %18, align 8, !tbaa !7
  %82 = getelementptr i64, ptr %81, i64 -1
  store ptr %82, ptr %80, align 8, !tbaa !16
  %83 = getelementptr inbounds nuw %struct.rb_control_frame_struct, ptr %24, i32 0, i32 5
  store ptr null, ptr %83, align 8, !tbaa !108
  %84 = getelementptr inbounds nuw %struct.rb_control_frame_struct, ptr %24, i32 0, i32 6
  store ptr null, ptr %84, align 8, !tbaa !109
  call void @llvm.memcpy.p0.p0.i64(ptr align 8 %71, ptr align 8 %24, i64 56, i1 false), !tbaa.struct !110
  fence syncscope("singlethread") seq_cst
  %85 = load ptr, ptr %21, align 8, !tbaa !14
  %86 = load ptr, ptr %11, align 8, !tbaa !33
  %87 = getelementptr inbounds nuw %struct.rb_execution_context_struct, ptr %86, i32 0, i32 2
  store ptr %85, ptr %87, align 8, !tbaa !76
  call void @llvm.lifetime.end.p0(i64 8, ptr %21) #21
  ret void
}

; Function Attrs: inlinehint nounwind sspstrong uwtable
define internal ptr @rb_iseq_check(ptr noundef %0) #2 {
  %2 = alloca ptr, align 8
  store ptr %0, ptr %2, align 8, !tbaa !78
  %3 = load ptr, ptr %2, align 8, !tbaa !78
  ret ptr %3
}

; Function Attrs: inlinehint nounwind sspstrong uwtable
define internal ptr @VM_BH_TO_ISEQ_BLOCK(i64 noundef %0) #2 {
  %2 = alloca i64, align 8
  %3 = alloca ptr, align 8
  store i64 %0, ptr %2, align 8, !tbaa !31
  call void @llvm.lifetime.start.p0(i64 8, ptr %3) #21
  %4 = load i64, ptr %2, align 8, !tbaa !31
  %5 = and i64 %4, -4
  %6 = inttoptr i64 %5 to ptr
  store ptr %6, ptr %3, align 8, !tbaa !111
  %7 = load ptr, ptr %3, align 8, !tbaa !111
  call void @llvm.lifetime.end.p0(i64 8, ptr %3) #21
  ret ptr %7
}

; Function Attrs: nounwind sspstrong uwtable
define internal i64 @vm_invoke_iseq_block(ptr noundef %0, ptr noundef %1, ptr noundef %2, ptr noundef %3, i1 noundef zeroext %4, i64 noundef %5) #0 {
  %7 = alloca ptr, align 8
  %8 = alloca ptr, align 8
  %9 = alloca ptr, align 8
  %10 = alloca ptr, align 8
  %11 = alloca i8, align 1
  %12 = alloca i64, align 8
  %13 = alloca ptr, align 8
  %14 = alloca ptr, align 8
  %15 = alloca i32, align 4
  %16 = alloca ptr, align 8
  %17 = alloca ptr, align 8
  %18 = alloca i32, align 4
  store ptr %0, ptr %7, align 8, !tbaa !33
  store ptr %1, ptr %8, align 8, !tbaa !14
  store ptr %2, ptr %9, align 8, !tbaa !186
  store ptr %3, ptr %10, align 8, !tbaa !142
  %19 = zext i1 %4 to i8
  store i8 %19, ptr %11, align 1, !tbaa !55
  store i64 %5, ptr %12, align 8, !tbaa !31
  call void @llvm.lifetime.start.p0(i64 8, ptr %13) #21
  %20 = load i64, ptr %12, align 8, !tbaa !31
  %21 = call ptr @VM_BH_TO_ISEQ_BLOCK(i64 noundef %20)
  store ptr %21, ptr %13, align 8, !tbaa !111
  call void @llvm.lifetime.start.p0(i64 8, ptr %14) #21
  %22 = load ptr, ptr %13, align 8, !tbaa !111
  %23 = getelementptr inbounds nuw %struct.rb_captured_block, ptr %22, i32 0, i32 2
  %24 = load ptr, ptr %23, align 8, !tbaa !58
  %25 = call ptr @rb_iseq_check(ptr noundef %24)
  store ptr %25, ptr %14, align 8, !tbaa !78
  call void @llvm.lifetime.start.p0(i64 4, ptr %15) #21
  %26 = load ptr, ptr %14, align 8, !tbaa !78
  %27 = getelementptr inbounds nuw %struct.rb_iseq_struct, ptr %26, i32 0, i32 2
  %28 = load ptr, ptr %27, align 8, !tbaa !81
  %29 = getelementptr inbounds nuw %struct.rb_iseq_constant_body, ptr %28, i32 0, i32 3
  %30 = getelementptr inbounds nuw %struct.anon.18, ptr %29, i32 0, i32 1
  %31 = load i32, ptr %30, align 4, !tbaa !170
  store i32 %31, ptr %15, align 4, !tbaa !24
  call void @llvm.lifetime.start.p0(i64 8, ptr %16) #21
  %32 = load ptr, ptr %8, align 8, !tbaa !14
  %33 = getelementptr inbounds nuw %struct.rb_control_frame_struct, ptr %32, i32 0, i32 1
  %34 = load ptr, ptr %33, align 8, !tbaa !101
  %35 = load ptr, ptr %9, align 8, !tbaa !186
  %36 = getelementptr inbounds nuw %struct.rb_calling_info, ptr %35, i32 0, i32 4
  %37 = load i32, ptr %36, align 8, !tbaa !219
  %38 = sext i32 %37 to i64
  %39 = sub i64 0, %38
  %40 = getelementptr i64, ptr %34, i64 %39
  store ptr %40, ptr %16, align 8, !tbaa !7
  call void @llvm.lifetime.start.p0(i64 8, ptr %17) #21
  %41 = load ptr, ptr %16, align 8, !tbaa !7
  store ptr %41, ptr %17, align 8, !tbaa !7
  call void @llvm.lifetime.start.p0(i64 4, ptr %18) #21
  %42 = load ptr, ptr %7, align 8, !tbaa !33
  %43 = load ptr, ptr %9, align 8, !tbaa !186
  %44 = load ptr, ptr %10, align 8, !tbaa !142
  %45 = load ptr, ptr %14, align 8, !tbaa !78
  %46 = load ptr, ptr %17, align 8, !tbaa !7
  %47 = load i8, ptr %11, align 1, !tbaa !55, !range !121, !noundef !122
  %48 = trunc i8 %47 to i1
  %49 = select i1 %48, i32 0, i32 1
  %50 = call i32 @vm_callee_setup_block_arg(ptr noundef %42, ptr noundef %43, ptr noundef %44, ptr noundef %45, ptr noundef %46, i32 noundef %49)
  store i32 %50, ptr %18, align 4, !tbaa !24
  %51 = load ptr, ptr %16, align 8, !tbaa !7
  %52 = load ptr, ptr %8, align 8, !tbaa !14
  %53 = getelementptr inbounds nuw %struct.rb_control_frame_struct, ptr %52, i32 0, i32 1
  store ptr %51, ptr %53, align 8, !tbaa !101
  %54 = load ptr, ptr %7, align 8, !tbaa !33
  %55 = load ptr, ptr %14, align 8, !tbaa !78
  %56 = load i8, ptr %11, align 1, !tbaa !55, !range !121, !noundef !122
  %57 = trunc i8 %56 to i1
  %58 = select i1 %57, i32 256, i32 0
  %59 = or i32 572653569, %58
  %60 = sext i32 %59 to i64
  %61 = load ptr, ptr %13, align 8, !tbaa !111
  %62 = getelementptr inbounds nuw %struct.rb_captured_block, ptr %61, i32 0, i32 0
  %63 = load i64, ptr %62, align 8, !tbaa !187
  %64 = load ptr, ptr %13, align 8, !tbaa !111
  %65 = getelementptr inbounds nuw %struct.rb_captured_block, ptr %64, i32 0, i32 1
  %66 = load ptr, ptr %65, align 8, !tbaa !191
  %67 = ptrtoint ptr %66 to i64
  %68 = or i64 %67, 1
  %69 = load ptr, ptr %14, align 8, !tbaa !78
  %70 = getelementptr inbounds nuw %struct.rb_iseq_struct, ptr %69, i32 0, i32 2
  %71 = load ptr, ptr %70, align 8, !tbaa !81
  %72 = getelementptr inbounds nuw %struct.rb_iseq_constant_body, ptr %71, i32 0, i32 2
  %73 = load ptr, ptr %72, align 8, !tbaa !246
  %74 = load i32, ptr %18, align 4, !tbaa !24
  %75 = sext i32 %74 to i64
  %76 = getelementptr i64, ptr %73, i64 %75
  %77 = load ptr, ptr %16, align 8, !tbaa !7
  %78 = load i32, ptr %15, align 4, !tbaa !24
  %79 = sext i32 %78 to i64
  %80 = getelementptr i64, ptr %77, i64 %79
  %81 = load ptr, ptr %14, align 8, !tbaa !78
  %82 = getelementptr inbounds nuw %struct.rb_iseq_struct, ptr %81, i32 0, i32 2
  %83 = load ptr, ptr %82, align 8, !tbaa !81
  %84 = getelementptr inbounds nuw %struct.rb_iseq_constant_body, ptr %83, i32 0, i32 13
  %85 = load i32, ptr %84, align 8, !tbaa !169
  %86 = load i32, ptr %15, align 4, !tbaa !24
  %87 = sub i32 %85, %86
  %88 = load ptr, ptr %14, align 8, !tbaa !78
  %89 = getelementptr inbounds nuw %struct.rb_iseq_struct, ptr %88, i32 0, i32 2
  %90 = load ptr, ptr %89, align 8, !tbaa !81
  %91 = getelementptr inbounds nuw %struct.rb_iseq_constant_body, ptr %90, i32 0, i32 19
  %92 = load i32, ptr %91, align 8, !tbaa !257
  call void @vm_push_frame(ptr noundef %54, ptr noundef %55, i64 noundef %60, i64 noundef %63, i64 noundef %68, i64 noundef 0, ptr noundef %76, ptr noundef %80, i32 noundef %87, i32 noundef %92)
  call void @llvm.lifetime.end.p0(i64 4, ptr %18) #21
  call void @llvm.lifetime.end.p0(i64 8, ptr %17) #21
  call void @llvm.lifetime.end.p0(i64 8, ptr %16) #21
  call void @llvm.lifetime.end.p0(i64 4, ptr %15) #21
  call void @llvm.lifetime.end.p0(i64 8, ptr %14) #21
  call void @llvm.lifetime.end.p0(i64 8, ptr %13) #21
  ret i64 36
}