; Function Attrs: nounwind sspstrong uwtable
define internal noundef i64 @vm_invoke_iseq_block(ptr noundef %0, ptr noundef captures(none) %1, ptr noundef captures(none) %2, ptr noundef %3, i1 noundef zeroext %4, i64 noundef %5) unnamed_addr #2 {
  %7 = and i64 %5, -4
  %8 = inttoptr i64 %7 to ptr
  %9 = getelementptr inbounds nuw i8, ptr %8, i64 16
  %10 = load ptr, ptr %9, align 8, !tbaa !26
  %11 = getelementptr inbounds nuw i8, ptr %10, i64 16
  %12 = load ptr, ptr %11, align 8, !tbaa !73
  %13 = getelementptr inbounds nuw i8, ptr %12, i64 20
  %14 = load i32, ptr %13, align 4, !tbaa !183
  %15 = getelementptr inbounds nuw i8, ptr %1, i64 8
  %16 = load ptr, ptr %15, align 8, !tbaa !93
  %17 = getelementptr inbounds nuw i8, ptr %2, i64 32
  %18 = load i32, ptr %17, align 8, !tbaa !213
  %19 = sext i32 %18 to i64
  %20 = sub nsw i64 0, %19
  %21 = getelementptr i64, ptr %16, i64 %20
  %not. = xor i1 %4, true
  %22 = zext i1 %not. to i32
  %23 = tail call fastcc i32 @vm_callee_setup_block_arg(ptr noundef %0, ptr noundef %2, ptr noundef %3, ptr noundef %10, ptr noundef %21, i32 noundef %22)
  store ptr %21, ptr %15, align 8, !tbaa !93
  %24 = load i64, ptr %8, align 8, !tbaa !193
  %25 = getelementptr inbounds nuw i8, ptr %8, i64 8
  %26 = load ptr, ptr %25, align 8, !tbaa !195
  %27 = load ptr, ptr %11, align 8, !tbaa !73
  %28 = getelementptr inbounds nuw i8, ptr %27, i64 8
  %29 = load ptr, ptr %28, align 8, !tbaa !137
  %30 = sext i32 %14 to i64
  %31 = getelementptr i64, ptr %21, i64 %30
  %32 = getelementptr inbounds nuw i8, ptr %27, i64 232
  %33 = load i32, ptr %32, align 8, !tbaa !182
  %34 = sub i32 %33, %14
  %35 = getelementptr inbounds nuw i8, ptr %27, i64 256
  %36 = load i32, ptr %35, align 8, !tbaa !314
  %37 = getelementptr inbounds nuw i8, ptr %0, i64 16
  %38 = load ptr, ptr %37, align 8, !tbaa !66
  %39 = getelementptr i8, ptr %38, i64 -56
  %40 = add i32 %36, %34
  %41 = sext i32 %40 to i64
  %42 = getelementptr i64, ptr %31, i64 %41
  %43 = getelementptr i8, ptr %42, i64 56
  %.not.i = icmp ugt ptr %39, %43
  br i1 %.not.i, label %.preheader.i, label %45, !prof !69

.preheader.i:                                     ; preds = %6
  %44 = icmp sgt i32 %34, 0
  br i1 %44, label %.lr.ph.i, label %vm_push_frame.exit

45:                                               ; preds = %6
  tail call fastcc void @vm_stackoverflow() #56
  unreachable

.lr.ph.i:                                         ; preds = %.preheader.i, %.lr.ph.i
  %.026.i = phi ptr [ %46, %.lr.ph.i ], [ %31, %.preheader.i ]
  %.02325.i = phi i32 [ %47, %.lr.ph.i ], [ 0, %.preheader.i ]
  %46 = getelementptr i8, ptr %.026.i, i64 8
  store i64 4, ptr %.026.i, align 8, !tbaa !7
  %47 = add nuw nsw i32 %.02325.i, 1
  %exitcond.not.i = icmp eq i32 %47, %34
  br i1 %exitcond.not.i, label %vm_push_frame.exit, label %.lr.ph.i, !llvm.loop !315

vm_push_frame.exit:                               ; preds = %.lr.ph.i, %.preheader.i
  %.0.lcssa.i = phi ptr [ %31, %.preheader.i ], [ %46, %.lr.ph.i ]
  %48 = sext i32 %23 to i64
  %49 = getelementptr i64, ptr %29, i64 %48
  %50 = ptrtoint ptr %26 to i64
  %51 = or i64 %50, 1
  %52 = select i1 %4, i64 572653825, i64 572653569
  %53 = getelementptr i8, ptr %.0.lcssa.i, i64 8
  store i64 0, ptr %.0.lcssa.i, align 8, !tbaa !7
  %54 = getelementptr i8, ptr %.0.lcssa.i, i64 16
  store i64 %51, ptr %53, align 8, !tbaa !7
  %55 = getelementptr i8, ptr %.0.lcssa.i, i64 24
  store i64 %52, ptr %54, align 8, !tbaa !7
  store ptr %49, ptr %39, align 8, !tbaa !95
  %.sroa.2.0..sroa_idx.i = getelementptr i8, ptr %38, i64 -48
  store ptr %55, ptr %.sroa.2.0..sroa_idx.i, align 8, !tbaa !95
  %.sroa.3.0..sroa_idx.i = getelementptr i8, ptr %38, i64 -40
  store ptr %10, ptr %.sroa.3.0..sroa_idx.i, align 8, !tbaa !96
  %.sroa.4.0..sroa_idx.i = getelementptr i8, ptr %38, i64 -32
  store i64 %24, ptr %.sroa.4.0..sroa_idx.i, align 8, !tbaa !7
  %.sroa.5.0..sroa_idx.i = getelementptr i8, ptr %38, i64 -24
  store ptr %54, ptr %.sroa.5.0..sroa_idx.i, align 8, !tbaa !95
  %.sroa.6.0..sroa_idx.i = getelementptr i8, ptr %38, i64 -16
  tail call void @llvm.memset.p0.i64(ptr noundef nonnull align 8 dereferenceable(16) %.sroa.6.0..sroa_idx.i, i8 0, i64 16, i1 false)
  fence syncscope("singlethread") seq_cst
  store ptr %39, ptr %37, align 8, !tbaa !66
  ret i64 36
}